; ModuleID = '22/727.c'
source_filename = "22/727.c"
target datalayout = "e-m:e-p270:32:32-p271:32:32-p272:64:64-i64:64-f80:128-n8:16:32:64-S128"
target triple = "x86_64-pc-linux-gnu"

@.str = private unnamed_addr constant [3 x i8] c"%d\00", align 1
@.str.1 = private unnamed_addr constant [3 x i8] c"%c\00", align 1
@.str.2 = private unnamed_addr constant [3 x i8] c"No\00", align 1

; Function Attrs: noinline nounwind uwtable
define dso_local i32 @main() #0 {
  %1 = alloca i32, align 4
  %2 = alloca i32, align 4
  %3 = alloca i32, align 4
  %4 = alloca i32, align 4
  %5 = alloca i32, align 4
  %6 = alloca i8, align 1
  store i32 0, i32* %1, align 4
  store i32 0, i32* %3, align 4
  %7 = call i32 (i8*, ...) @__isoc99_scanf(i8* getelementptr inbounds ([3 x i8], [3 x i8]* @.str, i64 0, i64 0), i32* %2)
  %8 = call i32 (i8*, ...) @__isoc99_scanf(i8* getelementptr inbounds ([3 x i8], [3 x i8]* @.str.1, i64 0, i64 0), i8* %6)
  %9 = load i8, i8* %6, align 1
  %10 = sext i8 %9 to i32
  %11 = icmp eq i32 %10, 44
  br i1 %11, label %12, label %60

12:                                               ; preds = %0
  store i32 1, i32* %5, align 4
  br label %13

13:                                               ; preds = %56, %12
  %14 = load i32, i32* %5, align 4
  %15 = icmp sle i32 %14, 300
  br i1 %15, label %16, label %59

16:                                               ; preds = %13
  %17 = call i32 (i8*, ...) @__isoc99_scanf(i8* getelementptr inbounds ([3 x i8], [3 x i8]* @.str, i64 0, i64 0), i32* %4)
  %18 = load i32, i32* %4, align 4
  %19 = load i32, i32* %2, align 4
  %20 = icmp sgt i32 %18, %19
  br i1 %20, label %21, label %24

21:                                               ; preds = %16
  %22 = load i32, i32* %2, align 4
  store i32 %22, i32* %3, align 4
  %23 = load i32, i32* %4, align 4
  store i32 %23, i32* %2, align 4
  br label %24

24:                                               ; preds = %21, %16
  %25 = load i32, i32* %4, align 4
  %26 = load i32, i32* %2, align 4
  %27 = icmp eq i32 %25, %26
  br i1 %27, label %28, label %31

28:                                               ; preds = %24
  %29 = load i32, i32* %2, align 4
  store i32 %29, i32* %2, align 4
  %30 = load i32, i32* %3, align 4
  store i32 %30, i32* %3, align 4
  br label %31

31:                                               ; preds = %28, %24
  %32 = load i32, i32* %2, align 4
  %33 = load i32, i32* %4, align 4
  %34 = icmp sgt i32 %32, %33
  br i1 %34, label %35, label %42

35:                                               ; preds = %31
  %36 = load i32, i32* %4, align 4
  %37 = load i32, i32* %3, align 4
  %38 = icmp sge i32 %36, %37
  br i1 %38, label %39, label %42

39:                                               ; preds = %35
  %40 = load i32, i32* %2, align 4
  store i32 %40, i32* %2, align 4
  %41 = load i32, i32* %4, align 4
  store i32 %41, i32* %3, align 4
  br label %42

42:                                               ; preds = %39, %35, %31
  %43 = load i32, i32* %4, align 4
  %44 = load i32, i32* %3, align 4
  %45 = icmp slt i32 %43, %44
  br i1 %45, label %46, label %49

46:                                               ; preds = %42
  %47 = load i32, i32* %2, align 4
  store i32 %47, i32* %2, align 4
  %48 = load i32, i32* %3, align 4
  store i32 %48, i32* %3, align 4
  br label %49

49:                                               ; preds = %46, %42
  %50 = call i32 (i8*, ...) @__isoc99_scanf(i8* getelementptr inbounds ([3 x i8], [3 x i8]* @.str.1, i64 0, i64 0), i8* %6)
  %51 = load i8, i8* %6, align 1
  %52 = sext i8 %51 to i32
  %53 = icmp ne i32 %52, 44
  br i1 %53, label %54, label %55

54:                                               ; preds = %49
  br label %59

55:                                               ; preds = %49
  br label %56

56:                                               ; preds = %55
  %57 = load i32, i32* %5, align 4
  %58 = add nsw i32 %57, 1
  store i32 %58, i32* %5, align 4
  br label %13

59:                                               ; preds = %54, %13
  br label %60

60:                                               ; preds = %59, %0
  %61 = load i32, i32* %3, align 4
  %62 = icmp ne i32 %61, 0
  br i1 %62, label %63, label %66

63:                                               ; preds = %60
  %64 = load i32, i32* %3, align 4
  %65 = call i32 (i8*, ...) @printf(i8* getelementptr inbounds ([3 x i8], [3 x i8]* @.str, i64 0, i64 0), i32 %64)
  br label %66

66:                                               ; preds = %63, %60
  %67 = load i32, i32* %3, align 4
  %68 = icmp eq i32 %67, 0
  br i1 %68, label %69, label %71

69:                                               ; preds = %66
  %70 = call i32 (i8*, ...) @printf(i8* getelementptr inbounds ([3 x i8], [3 x i8]* @.str.2, i64 0, i64 0))
  br label %71

71:                                               ; preds = %69, %66
  ret i32 0
}

declare dso_local i32 @__isoc99_scanf(i8*, ...) #1

declare dso_local i32 @printf(i8*, ...) #1


!llvm.module.flags = !{!0}
!llvm.ident = !{!1}

!0 = !{i32 1, !"wchar_size", i32 4}
!1 = !{!"clang version 10.0.0-4ubuntu1 "}
